target datalayout = "e-m:e-p270:32:32-p271:32:32-p272:64:64-i64:64-i128:128-f80:128-n8:16:32:64-S128"
target triple = "x86_64-pc-linux-gnu"

%struct.GetByteContext = type { ptr, ptr, ptr }
%struct.AVRational = type { i32, i32 }
%struct.AVCodecContext = type { ptr, i32, i32, ptr, i32, i32, ptr, ptr, ptr, i64, i32, i32, ptr, i32, %struct.AVRational, %struct.AVRational, %struct.AVRational, i32, i32, i32, i32, i32, %struct.AVRational, i32, i32, i32, i32, i32, i32, i32, i32, i32, i32, i32, ptr, ptr, i32, float, float, float, float, float, float, float, float, float, i32, i32, i32, i32, i32, i32, i32, i32, i32, i32, i32, i32, ptr, ptr, ptr, i32, i32, i32, i32, i32, i32, i32, i32, i32, i32, %struct.AVChannelLayout, i32, i32, i32, i32, i32, i32, i32, i32, ptr, i32, i32, i32, float, float, i32, i32, i32, i32, i32, ptr, i64, i64, float, float, i32, i32, ptr, ptr, i32, i32, i32, i32, i32, ptr, ptr, ptr, ptr, i32, i32, [8 x i64], i32, i32, i32, i32, i32, i32, i32, ptr, ptr, i32, i32, i32, i32, i32, i32, i32, i32, i32, i32, ptr, ptr, i32, i32, ptr, ptr, ptr, ptr, i32, i32, i64, i32, i32, i64, ptr, i64, ptr, i32, ptr, i32 }
%struct.AVChannelLayout = type { i32, i32, %union.anon.0, ptr }
%union.anon.0 = type { i64 }
%struct.AVFrame = type { [8 x ptr], [8 x i32], ptr, i32, i32, i32, i32, i32, %struct.AVRational, i64, i64, %struct.AVRational, i32, ptr, i32, i32, [8 x ptr], ptr, i32, ptr, i32, i32, i32, i32, i32, i32, i32, i64, ptr, i32, ptr, ptr, i64, i64, i64, i64, ptr, %struct.AVChannelLayout, i64 }

; Function Attrs: alwaysinline nounwind willreturn memory(none) uwtable
define internal zeroext i16 @av_bswap16(i16 noundef zeroext %0) #5 {
  %2 = alloca i16, align 2
  store i16 %0, ptr %2, align 2, !tbaa !52
  %3 = load i16, ptr %2, align 2, !tbaa !52
  %4 = zext i16 %3 to i32
  %5 = ashr i32 %4, 8
  %6 = load i16, ptr %2, align 2, !tbaa !52
  %7 = zext i16 %6 to i32
  %8 = shl i32 %7, 8
  %9 = or i32 %5, %8
  %10 = trunc i32 %9 to i16
  store i16 %10, ptr %2, align 2, !tbaa !52
  %11 = load i16, ptr %2, align 2, !tbaa !52
  ret i16 %11
}

; Function Attrs: alwaysinline nounwind uwtable
define internal i32 @bytestream_get_byte(ptr noundef %0) #2 {
  %2 = alloca ptr, align 8
  store ptr %0, ptr %2, align 8, !tbaa !70
  %3 = load ptr, ptr %2, align 8, !tbaa !70
  %4 = load ptr, ptr %3, align 8, !tbaa !40
  %5 = getelementptr inbounds i8, ptr %4, i64 1
  store ptr %5, ptr %3, align 8, !tbaa !40
  %6 = load ptr, ptr %2, align 8, !tbaa !70
  %7 = load ptr, ptr %6, align 8, !tbaa !40
  %8 = getelementptr inbounds i8, ptr %7, i64 -1
  %9 = getelementptr inbounds i8, ptr %8, i64 0
  %10 = load i8, ptr %9, align 1, !tbaa !47
  %11 = zext i8 %10 to i32
  ret i32 %11
}

; Function Attrs: alwaysinline nounwind uwtable
define internal i32 @bytestream_get_be16(ptr noundef %0) #2 {
  %2 = alloca ptr, align 8
  store ptr %0, ptr %2, align 8, !tbaa !70
  %3 = load ptr, ptr %2, align 8, !tbaa !70
  %4 = load ptr, ptr %3, align 8, !tbaa !40
  %5 = getelementptr inbounds i8, ptr %4, i64 2
  store ptr %5, ptr %3, align 8, !tbaa !40
  %6 = load ptr, ptr %2, align 8, !tbaa !70
  %7 = load ptr, ptr %6, align 8, !tbaa !40
  %8 = getelementptr inbounds i8, ptr %7, i64 -2
  %9 = load i16, ptr %8, align 1, !tbaa !47
  %10 = call zeroext i16 @av_bswap16(i16 noundef zeroext %9) #8
  %11 = zext i16 %10 to i32
  ret i32 %11
}

; Function Attrs: alwaysinline nounwind uwtable
define internal i32 @bytestream2_get_byteu(ptr noundef %0) #2 {
  %2 = alloca ptr, align 8
  store ptr %0, ptr %2, align 8, !tbaa !43
  %3 = load ptr, ptr %2, align 8, !tbaa !43
  %4 = getelementptr inbounds nuw %struct.GetByteContext, ptr %3, i32 0, i32 0
  %5 = call i32 @bytestream_get_byte(ptr noundef %4)
  ret i32 %5
}

; Function Attrs: alwaysinline nounwind uwtable
define internal i32 @bytestream2_get_be16u(ptr noundef %0) #2 {
  %2 = alloca ptr, align 8
  store ptr %0, ptr %2, align 8, !tbaa !43
  %3 = load ptr, ptr %2, align 8, !tbaa !43
  %4 = getelementptr inbounds nuw %struct.GetByteContext, ptr %3, i32 0, i32 0
  %5 = call i32 @bytestream_get_be16(ptr noundef %4)
  ret i32 %5
}

; Function Attrs: alwaysinline nounwind uwtable
define internal i32 @bytestream2_get_byte(ptr noundef %0) #2 {
  %2 = alloca i32, align 4
  %3 = alloca ptr, align 8
  store ptr %0, ptr %3, align 8, !tbaa !43
  %4 = load ptr, ptr %3, align 8, !tbaa !43
  %5 = getelementptr inbounds nuw %struct.GetByteContext, ptr %4, i32 0, i32 1
  %6 = load ptr, ptr %5, align 8, !tbaa !46
  %7 = load ptr, ptr %3, align 8, !tbaa !43
  %8 = getelementptr inbounds nuw %struct.GetByteContext, ptr %7, i32 0, i32 0
  %9 = load ptr, ptr %8, align 8, !tbaa !24
  %10 = ptrtoint ptr %6 to i64
  %11 = ptrtoint ptr %9 to i64
  %12 = sub i64 %10, %11
  %13 = icmp slt i64 %12, 1
  br i1 %13, label %14, label %20

14:                                               ; preds = %1
  %15 = load ptr, ptr %3, align 8, !tbaa !43
  %16 = getelementptr inbounds nuw %struct.GetByteContext, ptr %15, i32 0, i32 1
  %17 = load ptr, ptr %16, align 8, !tbaa !46
  %18 = load ptr, ptr %3, align 8, !tbaa !43
  %19 = getelementptr inbounds nuw %struct.GetByteContext, ptr %18, i32 0, i32 0
  store ptr %17, ptr %19, align 8, !tbaa !24
  store i32 0, ptr %2, align 4
  br label %23

20:                                               ; preds = %1
  %21 = load ptr, ptr %3, align 8, !tbaa !43
  %22 = call i32 @bytestream2_get_byteu(ptr noundef %21)
  store i32 %22, ptr %2, align 4
  br label %23

23:                                               ; preds = %20, %14
  %24 = load i32, ptr %2, align 4
  ret i32 %24
}

; Function Attrs: alwaysinline nounwind uwtable
define internal i32 @bytestream2_get_bytes_left(ptr noundef %0) #2 {
  %2 = alloca ptr, align 8
  store ptr %0, ptr %2, align 8, !tbaa !43
  %3 = load ptr, ptr %2, align 8, !tbaa !43
  %4 = getelementptr inbounds nuw %struct.GetByteContext, ptr %3, i32 0, i32 1
  %5 = load ptr, ptr %4, align 8, !tbaa !46
  %6 = load ptr, ptr %2, align 8, !tbaa !43
  %7 = getelementptr inbounds nuw %struct.GetByteContext, ptr %6, i32 0, i32 0
  %8 = load ptr, ptr %7, align 8, !tbaa !24
  %9 = ptrtoint ptr %5 to i64
  %10 = ptrtoint ptr %8 to i64
  %11 = sub i64 %9, %10
  %12 = trunc i64 %11 to i32
  ret i32 %12
}

; Function Attrs: alwaysinline nounwind uwtable
define internal i32 @bytestream2_get_be16(ptr noundef %0) #2 {
  %2 = alloca i32, align 4
  %3 = alloca ptr, align 8
  store ptr %0, ptr %3, align 8, !tbaa !43
  %4 = load ptr, ptr %3, align 8, !tbaa !43
  %5 = getelementptr inbounds nuw %struct.GetByteContext, ptr %4, i32 0, i32 1
  %6 = load ptr, ptr %5, align 8, !tbaa !46
  %7 = load ptr, ptr %3, align 8, !tbaa !43
  %8 = getelementptr inbounds nuw %struct.GetByteContext, ptr %7, i32 0, i32 0
  %9 = load ptr, ptr %8, align 8, !tbaa !24
  %10 = ptrtoint ptr %6 to i64
  %11 = ptrtoint ptr %9 to i64
  %12 = sub i64 %10, %11
  %13 = icmp slt i64 %12, 2
  br i1 %13, label %14, label %20

14:                                               ; preds = %1
  %15 = load ptr, ptr %3, align 8, !tbaa !43
  %16 = getelementptr inbounds nuw %struct.GetByteContext, ptr %15, i32 0, i32 1
  %17 = load ptr, ptr %16, align 8, !tbaa !46
  %18 = load ptr, ptr %3, align 8, !tbaa !43
  %19 = getelementptr inbounds nuw %struct.GetByteContext, ptr %18, i32 0, i32 0
  store ptr %17, ptr %19, align 8, !tbaa !24
  store i32 0, ptr %2, align 4
  br label %23

20:                                               ; preds = %1
  %21 = load ptr, ptr %3, align 8, !tbaa !43
  %22 = call i32 @bytestream2_get_be16u(ptr noundef %21)
  store i32 %22, ptr %2, align 4
  br label %23

23:                                               ; preds = %20, %14
  %24 = load i32, ptr %2, align 4
  ret i32 %24
}

; Function Attrs: nounwind uwtable
define internal i32 @decode_rle_bpp4(ptr noundef %0, ptr noundef %1, ptr noundef %2) #0 {
  %4 = alloca i32, align 4
  %5 = alloca ptr, align 8
  %6 = alloca ptr, align 8
  %7 = alloca ptr, align 8
  %8 = alloca i32, align 4
  %9 = alloca ptr, align 8
  %10 = alloca i32, align 4
  %11 = alloca i32, align 4
  %12 = alloca i32, align 4
  %13 = alloca i32, align 4
  %14 = alloca i32, align 4
  %15 = alloca i32, align 4
  %16 = alloca ptr, align 8
  %17 = alloca i32, align 4
  %18 = alloca i32, align 4
  store ptr %0, ptr %5, align 8, !tbaa !4
  store ptr %1, ptr %6, align 8, !tbaa !9
  store ptr %2, ptr %7, align 8, !tbaa !43
  call void @llvm.lifetime.start.p0(i64 4, ptr %8) #6
  %19 = load ptr, ptr %5, align 8, !tbaa !4
  %20 = getelementptr inbounds nuw %struct.AVCodecContext, ptr %19, i32 0, i32 18
  %21 = load i32, ptr %20, align 8, !tbaa !49
  store i32 %21, ptr %8, align 4, !tbaa !26
  call void @llvm.lifetime.start.p0(i64 8, ptr %9) #6
  %22 = load ptr, ptr %6, align 8, !tbaa !9
  %23 = getelementptr inbounds nuw %struct.AVFrame, ptr %22, i32 0, i32 0
  %24 = getelementptr inbounds [8 x ptr], ptr %23, i64 0, i64 0
  %25 = load ptr, ptr %24, align 8, !tbaa !40
  store ptr %25, ptr %9, align 8, !tbaa !40
  call void @llvm.lifetime.start.p0(i64 4, ptr %10) #6
  call void @llvm.lifetime.start.p0(i64 4, ptr %11) #6
  store i32 0, ptr %10, align 4, !tbaa !26
  br label %26

26:                                               ; preds = %150, %3
  %27 = load i32, ptr %10, align 4, !tbaa !26
  %28 = load ptr, ptr %5, align 8, !tbaa !4
  %29 = getelementptr inbounds nuw %struct.AVCodecContext, ptr %28, i32 0, i32 19
  %30 = load i32, ptr %29, align 4, !tbaa !50
  %31 = icmp slt i32 %27, %30
  br i1 %31, label %32, label %153

32:                                               ; preds = %26
  call void @llvm.lifetime.start.p0(i64 4, ptr %12) #6
  call void @llvm.lifetime.start.p0(i64 4, ptr %13) #6
  call void @llvm.lifetime.start.p0(i64 4, ptr %14) #6
  call void @llvm.lifetime.start.p0(i64 4, ptr %15) #6
  call void @llvm.lifetime.start.p0(i64 8, ptr %16) #6
  %33 = load ptr, ptr %9, align 8, !tbaa !40
  store ptr %33, ptr %16, align 8, !tbaa !40
  call void @llvm.lifetime.start.p0(i64 4, ptr %17) #6
  store i32 0, ptr %17, align 4, !tbaa !26
  %34 = load ptr, ptr %7, align 8, !tbaa !43
  %35 = call i32 @bytestream2_get_be16(ptr noundef %34)
  store i32 %35, ptr %13, align 4, !tbaa !26
  store i32 %35, ptr %12, align 4, !tbaa !26
  %36 = load ptr, ptr %7, align 8, !tbaa !43
  %37 = call i32 @bytestream2_get_bytes_left(ptr noundef %36)
  %38 = load i32, ptr %12, align 4, !tbaa !26
  %39 = icmp slt i32 %37, %38
  br i1 %39, label %40, label %41

40:                                               ; preds = %32
  store i32 -1094995529, ptr %4, align 4
  store i32 1, ptr %18, align 4
  br label %147

41:                                               ; preds = %32
  br label %42

42:                                               ; preds = %138, %41
  %43 = load i32, ptr %13, align 4, !tbaa !26
  %44 = icmp sgt i32 %43, 0
  br i1 %44, label %45, label %139

45:                                               ; preds = %42
  %46 = load ptr, ptr %7, align 8, !tbaa !43
  %47 = call i32 @bytestream2_get_byte(ptr noundef %46)
  store i32 %47, ptr %14, align 4, !tbaa !26
  %48 = load i32, ptr %14, align 4, !tbaa !26
  %49 = and i32 %48, 128
  %50 = icmp ne i32 %49, 0
  br i1 %50, label %51, label %93

51:                                               ; preds = %45
  %52 = load ptr, ptr %7, align 8, !tbaa !43
  %53 = call i32 @bytestream2_get_byte(ptr noundef %52)
  store i32 %53, ptr %15, align 4, !tbaa !26
  store i32 0, ptr %11, align 4, !tbaa !26
  br label %54

54:                                               ; preds = %87, %51
  %55 = load i32, ptr %11, align 4, !tbaa !26
  %56 = load i32, ptr %14, align 4, !tbaa !26
  %57 = sub nsw i32 257, %56
  %58 = icmp slt i32 %55, %57
  br i1 %58, label %59, label %90

59:                                               ; preds = %54
  %60 = load i32, ptr %17, align 4, !tbaa !26
  %61 = load i32, ptr %8, align 4, !tbaa !26
  %62 = icmp slt i32 %60, %61
  br i1 %62, label %63, label %73

63:                                               ; preds = %59
  %64 = load i32, ptr %15, align 4, !tbaa !26
  %65 = and i32 %64, 240
  %66 = ashr i32 %65, 4
  %67 = trunc i32 %66 to i8
  %68 = load ptr, ptr %16, align 8, !tbaa !40
  %69 = load i32, ptr %17, align 4, !tbaa !26
  %70 = add nsw i32 %69, 1
  store i32 %70, ptr %17, align 4, !tbaa !26
  %71 = sext i32 %69 to i64
  %72 = getelementptr inbounds i8, ptr %68, i64 %71
  store i8 %67, ptr %72, align 1, !tbaa !47
  br label %73

73:                                               ; preds = %63, %59
  %74 = load i32, ptr %17, align 4, !tbaa !26
  %75 = load i32, ptr %8, align 4, !tbaa !26
  %76 = icmp slt i32 %74, %75
  br i1 %76, label %77, label %86

77:                                               ; preds = %73
  %78 = load i32, ptr %15, align 4, !tbaa !26
  %79 = and i32 %78, 15
  %80 = trunc i32 %79 to i8
  %81 = load ptr, ptr %16, align 8, !tbaa !40
  %82 = load i32, ptr %17, align 4, !tbaa !26
  %83 = add nsw i32 %82, 1
  store i32 %83, ptr %17, align 4, !tbaa !26
  %84 = sext i32 %82 to i64
  %85 = getelementptr inbounds i8, ptr %81, i64 %84
  store i8 %80, ptr %85, align 1, !tbaa !47
  br label %86

86:                                               ; preds = %77, %73
  br label %87

87:                                               ; preds = %86
  %88 = load i32, ptr %11, align 4, !tbaa !26
  %89 = add nsw i32 %88, 1
  store i32 %89, ptr %11, align 4, !tbaa !26
  br label %54, !llvm.loop !62

90:                                               ; preds = %54
  %91 = load i32, ptr %13, align 4, !tbaa !26
  %92 = sub nsw i32 %91, 2
  store i32 %92, ptr %13, align 4, !tbaa !26
  br label %138

93:                                               ; preds = %45
  store i32 0, ptr %11, align 4, !tbaa !26
  br label %94

94:                                               ; preds = %129, %93
  %95 = load i32, ptr %11, align 4, !tbaa !26
  %96 = load i32, ptr %14, align 4, !tbaa !26
  %97 = add nsw i32 %96, 1
  %98 = icmp slt i32 %95, %97
  br i1 %98, label %99, label %132

99:                                               ; preds = %94
  %100 = load ptr, ptr %7, align 8, !tbaa !43
  %101 = call i32 @bytestream2_get_byte(ptr noundef %100)
  store i32 %101, ptr %15, align 4, !tbaa !26
  %102 = load i32, ptr %17, align 4, !tbaa !26
  %103 = load i32, ptr %8, align 4, !tbaa !26
  %104 = icmp slt i32 %102, %103
  br i1 %104, label %105, label %115

105:                                              ; preds = %99
  %106 = load i32, ptr %15, align 4, !tbaa !26
  %107 = and i32 %106, 240
  %108 = ashr i32 %107, 4
  %109 = trunc i32 %108 to i8
  %110 = load ptr, ptr %16, align 8, !tbaa !40
  %111 = load i32, ptr %17, align 4, !tbaa !26
  %112 = add nsw i32 %111, 1
  store i32 %112, ptr %17, align 4, !tbaa !26
  %113 = sext i32 %111 to i64
  %114 = getelementptr inbounds i8, ptr %110, i64 %113
  store i8 %109, ptr %114, align 1, !tbaa !47
  br label %115

115:                                              ; preds = %105, %99
  %116 = load i32, ptr %17, align 4, !tbaa !26
  %117 = load i32, ptr %8, align 4, !tbaa !26
  %118 = icmp slt i32 %116, %117
  br i1 %118, label %119, label %128

119:                                              ; preds = %115
  %120 = load i32, ptr %15, align 4, !tbaa !26
  %121 = and i32 %120, 15
  %122 = trunc i32 %121 to i8
  %123 = load ptr, ptr %16, align 8, !tbaa !40
  %124 = load i32, ptr %17, align 4, !tbaa !26
  %125 = add nsw i32 %124, 1
  store i32 %125, ptr %17, align 4, !tbaa !26
  %126 = sext i32 %124 to i64
  %127 = getelementptr inbounds i8, ptr %123, i64 %126
  store i8 %122, ptr %127, align 1, !tbaa !47
  br label %128

128:                                              ; preds = %119, %115
  br label %129

129:                                              ; preds = %128
  %130 = load i32, ptr %11, align 4, !tbaa !26
  %131 = add nsw i32 %130, 1
  store i32 %131, ptr %11, align 4, !tbaa !26
  br label %94, !llvm.loop !63

132:                                              ; preds = %94
  %133 = load i32, ptr %14, align 4, !tbaa !26
  %134 = add nsw i32 %133, 1
  %135 = add nsw i32 1, %134
  %136 = load i32, ptr %13, align 4, !tbaa !26
  %137 = sub nsw i32 %136, %135
  store i32 %137, ptr %13, align 4, !tbaa !26
  br label %138

138:                                              ; preds = %132, %90
  br label %42, !llvm.loop !64

139:                                              ; preds = %42
  %140 = load ptr, ptr %6, align 8, !tbaa !9
  %141 = getelementptr inbounds nuw %struct.AVFrame, ptr %140, i32 0, i32 1
  %142 = getelementptr inbounds [8 x i32], ptr %141, i64 0, i64 0
  %143 = load i32, ptr %142, align 8, !tbaa !26
  %144 = load ptr, ptr %9, align 8, !tbaa !40
  %145 = sext i32 %143 to i64
  %146 = getelementptr inbounds i8, ptr %144, i64 %145
  store ptr %146, ptr %9, align 8, !tbaa !40
  store i32 0, ptr %18, align 4
  br label %147

147:                                              ; preds = %139, %40
  call void @llvm.lifetime.end.p0(i64 4, ptr %17) #6
  call void @llvm.lifetime.end.p0(i64 8, ptr %16) #6
  call void @llvm.lifetime.end.p0(i64 4, ptr %15) #6
  call void @llvm.lifetime.end.p0(i64 4, ptr %14) #6
  call void @llvm.lifetime.end.p0(i64 4, ptr %13) #6
  call void @llvm.lifetime.end.p0(i64 4, ptr %12) #6
  %148 = load i32, ptr %18, align 4
  switch i32 %148, label %154 [
    i32 0, label %149
  ]

149:                                              ; preds = %147
  br label %150

150:                                              ; preds = %149
  %151 = load i32, ptr %10, align 4, !tbaa !26
  %152 = add nsw i32 %151, 1
  store i32 %152, ptr %10, align 4, !tbaa !26
  br label %26, !llvm.loop !65

153:                                              ; preds = %26
  store i32 0, ptr %4, align 4
  store i32 1, ptr %18, align 4
  br label %154

154:                                              ; preds = %153, %147
  call void @llvm.lifetime.end.p0(i64 4, ptr %11) #6
  call void @llvm.lifetime.end.p0(i64 4, ptr %10) #6
  call void @llvm.lifetime.end.p0(i64 8, ptr %9) #6
  call void @llvm.lifetime.end.p0(i64 4, ptr %8) #6
  %155 = load i32, ptr %4, align 4
  ret i32 %155
}