; Function Attrs: nofree norecurse nosync nounwind memory(readwrite, inaccessiblemem: none) uwtable
define internal fastcc range(i32 -1094995529, 1) i32 @decode_rle_bpp4(ptr noundef readonly captures(none) %0, ptr noundef readonly captures(none) %1, ptr noundef nonnull captures(none) %2) unnamed_addr #3 {
  %4 = getelementptr inbounds nuw i8, ptr %0, i64 112
  %5 = load i32, ptr %4, align 8, !tbaa !39
  %6 = getelementptr inbounds nuw i8, ptr %0, i64 116
  %7 = load i32, ptr %6, align 4, !tbaa !40
  %8 = icmp sgt i32 %7, 0
  br i1 %8, label %.lr.ph77, label %.thread

.lr.ph77:                                         ; preds = %3
  %9 = load ptr, ptr %1, align 8, !tbaa !20
  %10 = getelementptr inbounds nuw i8, ptr %2, i64 8
  %11 = getelementptr inbounds nuw i8, ptr %1, i64 64
  br label %12

12:                                               ; preds = %.lr.ph77, %._crit_edge
  %13 = phi i32 [ %7, %.lr.ph77 ], [ %97, %._crit_edge ]
  %.05075 = phi ptr [ %9, %.lr.ph77 ], [ %100, %._crit_edge ]
  %.05474 = phi i32 [ 0, %.lr.ph77 ], [ %101, %._crit_edge ]
  %14 = load ptr, ptr %10, align 8, !tbaa !18
  %15 = load ptr, ptr %2, align 8, !tbaa !21
  %16 = ptrtoint ptr %14 to i64
  %17 = ptrtoint ptr %15 to i64
  %18 = sub i64 %16, %17
  %19 = icmp slt i64 %18, 2
  br i1 %19, label %.preheader67.thread, label %bytestream2_get_be16.exit

bytestream2_get_be16.exit:                        ; preds = %12
  %20 = getelementptr inbounds nuw i8, ptr %15, i64 2
  store ptr %20, ptr %2, align 8, !tbaa !20
  %21 = load i16, ptr %15, align 1, !tbaa !19
  %22 = tail call i16 @llvm.bswap.i16(i16 %21)
  %23 = zext i16 %22 to i32
  %.pre81 = ptrtoint ptr %20 to i64
  %24 = sub i64 %16, %.pre81
  %25 = trunc i64 %24 to i32
  %.not60 = icmp sgt i32 %23, %25
  br i1 %.not60, label %.thread, label %.preheader67

.preheader67.thread:                              ; preds = %12
  store ptr %14, ptr %2, align 8, !tbaa !21
  br label %._crit_edge

.preheader67:                                     ; preds = %bytestream2_get_be16.exit
  %.not79 = icmp eq i16 %21, 0
  br i1 %.not79, label %._crit_edge, label %.lr.ph

.lr.ph:                                           ; preds = %.preheader67, %95
  %.04673 = phi i32 [ %.4, %95 ], [ 0, %.preheader67 ]
  %.05272 = phi i32 [ %.153, %95 ], [ %23, %.preheader67 ]
  %26 = load ptr, ptr %10, align 8, !tbaa !18
  %27 = load ptr, ptr %2, align 8, !tbaa !21
  %28 = ptrtoint ptr %26 to i64
  %29 = ptrtoint ptr %27 to i64
  %30 = sub i64 %28, %29
  %31 = icmp slt i64 %30, 1
  br i1 %31, label %bytestream2_get_byte.exit.thread, label %bytestream2_get_byte.exit

bytestream2_get_byte.exit.thread:                 ; preds = %.lr.ph
  store ptr %26, ptr %2, align 8, !tbaa !21
  br label %.preheader.preheader

bytestream2_get_byte.exit:                        ; preds = %.lr.ph
  %32 = getelementptr inbounds nuw i8, ptr %27, i64 1
  store ptr %32, ptr %2, align 8, !tbaa !20
  %33 = load i8, ptr %27, align 1, !tbaa !19
  %34 = zext i8 %33 to i32
  %.not = icmp sgt i8 %33, -1
  br i1 %.not, label %.preheader.preheader, label %35

.preheader.preheader:                             ; preds = %bytestream2_get_byte.exit.thread, %bytestream2_get_byte.exit
  %.0.i6190 = phi i32 [ 0, %bytestream2_get_byte.exit.thread ], [ %34, %bytestream2_get_byte.exit ]
  br label %.preheader

35:                                               ; preds = %bytestream2_get_byte.exit
  %36 = ptrtoint ptr %32 to i64
  %37 = sub i64 %28, %36
  %38 = icmp slt i64 %37, 1
  br i1 %38, label %39, label %40

39:                                               ; preds = %35
  store ptr %26, ptr %2, align 8, !tbaa !21
  br label %bytestream2_get_byte.exit63

40:                                               ; preds = %35
  %41 = getelementptr inbounds nuw i8, ptr %27, i64 2
  store ptr %41, ptr %2, align 8, !tbaa !20
  %42 = load i8, ptr %32, align 1, !tbaa !19
  %43 = zext i8 %42 to i32
  br label %bytestream2_get_byte.exit63

bytestream2_get_byte.exit63:                      ; preds = %39, %40
  %.0.i62 = phi i32 [ 0, %39 ], [ %43, %40 ]
  %44 = sub nuw nsw i32 257, %34
  %45 = lshr i32 %.0.i62, 4
  %46 = trunc nuw nsw i32 %45 to i8
  %47 = trunc nuw i32 %.0.i62 to i8
  %48 = and i8 %47, 15
  br label %49

49:                                               ; preds = %bytestream2_get_byte.exit63, %61
  %.169 = phi i32 [ %.04673, %bytestream2_get_byte.exit63 ], [ %.3, %61 ]
  %.05568 = phi i32 [ 0, %bytestream2_get_byte.exit63 ], [ %62, %61 ]
  %50 = icmp slt i32 %.169, %5
  br i1 %50, label %51, label %55

51:                                               ; preds = %49
  %52 = add nsw i32 %.169, 1
  %53 = sext i32 %.169 to i64
  %54 = getelementptr inbounds i8, ptr %.05075, i64 %53
  store i8 %46, ptr %54, align 1, !tbaa !19
  br label %55

55:                                               ; preds = %51, %49
  %.2 = phi i32 [ %52, %51 ], [ %.169, %49 ]
  %56 = icmp slt i32 %.2, %5
  br i1 %56, label %57, label %61

57:                                               ; preds = %55
  %58 = add nsw i32 %.2, 1
  %59 = sext i32 %.2 to i64
  %60 = getelementptr inbounds i8, ptr %.05075, i64 %59
  store i8 %48, ptr %60, align 1, !tbaa !19
  br label %61

61:                                               ; preds = %55, %57
  %.3 = phi i32 [ %58, %57 ], [ %.2, %55 ]
  %62 = add nuw nsw i32 %.05568, 1
  %exitcond.not = icmp eq i32 %62, %44
  br i1 %exitcond.not, label %63, label %49, !llvm.loop !51

63:                                               ; preds = %61
  %64 = add nsw i32 %.05272, -2
  br label %95

.preheader:                                       ; preds = %.preheader.preheader, %91
  %.571 = phi i32 [ %.7, %91 ], [ %.04673, %.preheader.preheader ]
  %.15670 = phi i32 [ %92, %91 ], [ 0, %.preheader.preheader ]
  %65 = load ptr, ptr %10, align 8, !tbaa !18
  %66 = load ptr, ptr %2, align 8, !tbaa !21
  %67 = ptrtoint ptr %65 to i64
  %68 = ptrtoint ptr %66 to i64
  %69 = sub i64 %67, %68
  %70 = icmp slt i64 %69, 1
  br i1 %70, label %71, label %72

71:                                               ; preds = %.preheader
  store ptr %65, ptr %2, align 8, !tbaa !21
  br label %bytestream2_get_byte.exit65

72:                                               ; preds = %.preheader
  %73 = getelementptr inbounds nuw i8, ptr %66, i64 1
  store ptr %73, ptr %2, align 8, !tbaa !20
  %74 = load i8, ptr %66, align 1, !tbaa !19
  %75 = zext i8 %74 to i32
  br label %bytestream2_get_byte.exit65

bytestream2_get_byte.exit65:                      ; preds = %71, %72
  %.0.i64 = phi i32 [ 0, %71 ], [ %75, %72 ]
  %76 = icmp slt i32 %.571, %5
  br i1 %76, label %77, label %83

77:                                               ; preds = %bytestream2_get_byte.exit65
  %78 = lshr i32 %.0.i64, 4
  %79 = trunc nuw nsw i32 %78 to i8
  %80 = add nsw i32 %.571, 1
  %81 = sext i32 %.571 to i64
  %82 = getelementptr inbounds i8, ptr %.05075, i64 %81
  store i8 %79, ptr %82, align 1, !tbaa !19
  br label %83

83:                                               ; preds = %77, %bytestream2_get_byte.exit65
  %.6 = phi i32 [ %80, %77 ], [ %.571, %bytestream2_get_byte.exit65 ]
  %84 = icmp slt i32 %.6, %5
  br i1 %84, label %85, label %91

85:                                               ; preds = %83
  %86 = trunc nuw i32 %.0.i64 to i8
  %87 = and i8 %86, 15
  %88 = add nsw i32 %.6, 1
  %89 = sext i32 %.6 to i64
  %90 = getelementptr inbounds i8, ptr %.05075, i64 %89
  store i8 %87, ptr %90, align 1, !tbaa !19
  br label %91

91:                                               ; preds = %83, %85
  %.7 = phi i32 [ %88, %85 ], [ %.6, %83 ]
  %92 = add nuw nsw i32 %.15670, 1
  %exitcond80.not = icmp eq i32 %.15670, %.0.i6190
  br i1 %exitcond80.not, label %93, label %.preheader, !llvm.loop !52

93:                                               ; preds = %91
  %.neg = add nsw i32 %.05272, -2
  %94 = sub i32 %.neg, %.0.i6190
  br label %95

95:                                               ; preds = %93, %63
  %.153 = phi i32 [ %64, %63 ], [ %94, %93 ]
  %.4 = phi i32 [ %.3, %63 ], [ %.7, %93 ]
  %96 = icmp sgt i32 %.153, 0
  br i1 %96, label %.lr.ph, label %._crit_edge.loopexit, !llvm.loop !53

._crit_edge.loopexit:                             ; preds = %95
  %.pre = load i32, ptr %6, align 4, !tbaa !40
  br label %._crit_edge

._crit_edge:                                      ; preds = %.preheader67.thread, %._crit_edge.loopexit, %.preheader67
  %97 = phi i32 [ %.pre, %._crit_edge.loopexit ], [ %13, %.preheader67 ], [ %13, %.preheader67.thread ]
  %98 = load i32, ptr %11, align 8, !tbaa !36
  %99 = sext i32 %98 to i64
  %100 = getelementptr inbounds i8, ptr %.05075, i64 %99
  %101 = add nuw nsw i32 %.05474, 1
  %102 = icmp slt i32 %101, %97
  br i1 %102, label %12, label %.thread, !llvm.loop !54

.thread:                                          ; preds = %._crit_edge, %bytestream2_get_be16.exit, %3
  %.249 = phi i32 [ 0, %3 ], [ -1094995529, %bytestream2_get_be16.exit ], [ 0, %._crit_edge ]
  ret i32 %.249
}